target datalayout = "e-m:e-p270:32:32-p271:32:32-p272:64:64-i64:64-i128:128-f80:128-n8:16:32:64-S128"
target triple = "x86_64-pc-linux-gnu"

%struct.Vec_Int_t_ = type { i32, i32, ptr }
%struct.Prs_Man_t_ = type { ptr, ptr, ptr, ptr, ptr, ptr, ptr, ptr, ptr, %struct.Vec_Str_t_, %struct.Vec_Int_t_, %struct.Vec_Int_t_, %struct.Vec_Int_t_, %struct.Vec_Int_t_, %struct.Vec_Int_t_, %struct.Vec_Int_t_, %struct.Vec_Int_t_, i32, i32, i32, i32, [1000 x i8] }
%struct.Vec_Str_t_ = type { i32, i32, ptr }

; Function Attrs: nounwind uwtable
define internal ptr @Prs_ManFindClosingParenthesis(ptr noundef %0, i8 noundef signext %1, i8 noundef signext %2) #0 {
  %4 = alloca ptr, align 8
  %5 = alloca ptr, align 8
  %6 = alloca i8, align 1
  %7 = alloca i8, align 1
  %8 = alloca ptr, align 8
  %9 = alloca i32, align 4
  %10 = alloca i32, align 4
  store ptr %0, ptr %5, align 8
  store i8 %1, ptr %6, align 1
  store i8 %2, ptr %7, align 1
  store i32 0, ptr %9, align 4
  store i32 1, ptr %10, align 4
  %11 = load ptr, ptr %5, align 8
  %12 = getelementptr inbounds %struct.Prs_Man_t_, ptr %11, i32 0, i32 3
  %13 = load ptr, ptr %12, align 8
  store ptr %13, ptr %8, align 8
  br label %14

14:                                               ; preds = %64, %3
  %15 = load ptr, ptr %8, align 8
  %16 = load i8, ptr %15, align 1
  %17 = icmp ne i8 %16, 0
  br i1 %17, label %18, label %67

18:                                               ; preds = %14
  %19 = load i32, ptr %10, align 4
  %20 = icmp ne i32 %19, 0
  br i1 %20, label %21, label %47

21:                                               ; preds = %18
  %22 = load ptr, ptr %8, align 8
  %23 = load i8, ptr %22, align 1
  %24 = sext i8 %23 to i32
  %25 = load i8, ptr %6, align 1
  %26 = sext i8 %25 to i32
  %27 = icmp eq i32 %24, %26
  br i1 %27, label %28, label %31

28:                                               ; preds = %21
  %29 = load i32, ptr %9, align 4
  %30 = add nsw i32 %29, 1
  store i32 %30, ptr %9, align 4
  br label %31

31:                                               ; preds = %28, %21
  %32 = load ptr, ptr %8, align 8
  %33 = load i8, ptr %32, align 1
  %34 = sext i8 %33 to i32
  %35 = load i8, ptr %7, align 1
  %36 = sext i8 %35 to i32
  %37 = icmp eq i32 %34, %36
  br i1 %37, label %38, label %41

38:                                               ; preds = %31
  %39 = load i32, ptr %9, align 4
  %40 = add nsw i32 %39, -1
  store i32 %40, ptr %9, align 4
  br label %41

41:                                               ; preds = %38, %31
  %42 = load i32, ptr %9, align 4
  %43 = icmp eq i32 %42, 0
  br i1 %43, label %44, label %46

44:                                               ; preds = %41
  %45 = load ptr, ptr %8, align 8
  store ptr %45, ptr %4, align 8
  br label %68

46:                                               ; preds = %41
  br label %47

47:                                               ; preds = %46, %18
  %48 = load ptr, ptr %8, align 8
  %49 = load i8, ptr %48, align 1
  %50 = sext i8 %49 to i32
  %51 = icmp eq i32 %50, 92
  br i1 %51, label %52, label %53

52:                                               ; preds = %47
  store i32 0, ptr %10, align 4
  br label %63

53:                                               ; preds = %47
  %54 = load i32, ptr %10, align 4
  %55 = icmp ne i32 %54, 0
  br i1 %55, label %62, label %56

56:                                               ; preds = %53
  %57 = load ptr, ptr %8, align 8
  %58 = load i8, ptr %57, align 1
  %59 = sext i8 %58 to i32
  %60 = icmp eq i32 %59, 32
  br i1 %60, label %61, label %62

61:                                               ; preds = %56
  store i32 1, ptr %10, align 4
  br label %62

62:                                               ; preds = %61, %56, %53
  br label %63

63:                                               ; preds = %62, %52
  br label %64

64:                                               ; preds = %63
  %65 = load ptr, ptr %8, align 8
  %66 = getelementptr inbounds i8, ptr %65, i32 1
  store ptr %66, ptr %8, align 8
  br label %14, !llvm.loop !84

67:                                               ; preds = %14
  store ptr null, ptr %4, align 8
  br label %68

68:                                               ; preds = %67, %44
  %69 = load ptr, ptr %4, align 8
  ret ptr %69
}