; Function Attrs: nofree norecurse nosync nounwind memory(argmem: read) uwtable
define internal fastcc noundef ptr @Prs_ManFindClosingParenthesis(ptr readonly %.24.val) unnamed_addr #14 {
  %1 = load i8, ptr %.24.val, align 1
  %.not1 = icmp eq i8 %1, 0
  br i1 %.not1, label %._crit_edge, label %.lr.ph

.lr.ph:                                           ; preds = %0, %9
  %2 = phi i8 [ %14, %9 ], [ %1, %0 ]
  %.04 = phi i1 [ %13, %9 ], [ false, %0 ]
  %.0153 = phi i32 [ %.116, %9 ], [ 0, %0 ]
  %.0172 = phi ptr [ %11, %9 ], [ %.24.val, %0 ]
  br i1 %.04, label %9, label %3

3:                                                ; preds = %.lr.ph
  %4 = icmp eq i8 %2, 40
  %5 = zext i1 %4 to i32
  %spec.select = add nsw i32 %.0153, %5
  %6 = icmp eq i8 %2, 41
  %7 = sext i1 %6 to i32
  %.3 = add nsw i32 %spec.select, %7
  %8 = icmp eq i32 %.3, 0
  br i1 %8, label %._crit_edge, label %9

9:                                                ; preds = %3, %.lr.ph
  %.116 = phi i32 [ %.3, %3 ], [ %.0153, %.lr.ph ]
  %10 = icmp eq i8 %2, 92
  %11 = getelementptr inbounds nuw i8, ptr %.0172, i64 1
  %12 = icmp ne i8 %2, 32
  %13 = select i1 %.04, i1 %12, i1 %10
  %14 = load i8, ptr %11, align 1
  %.not = icmp eq i8 %14, 0
  br i1 %.not, label %._crit_edge, label %.lr.ph, !llvm.loop !84

._crit_edge:                                      ; preds = %3, %9, %0
  %.018 = phi ptr [ null, %0 ], [ null, %9 ], [ %.0172, %3 ]
  ret ptr %.018
}